target datalayout = "e-m:e-p270:32:32-p271:32:32-p272:64:64-i64:64-i128:128-f80:128-n8:16:32:64-S128"
target triple = "x86_64-pc-linux-gnu"

%struct.UNewTrie = type { [34848 x i32], ptr, i32, i32, i32, i32, i8, i8, i8, i8, [34849 x i32] }

; Function Attrs: mustprogress nounwind uwtable
define i32 @utrie_get32_77(ptr noundef %0, i32 noundef %1, ptr noundef %2) #6 {
  %4 = alloca i32, align 4
  %5 = alloca ptr, align 8
  %6 = alloca i32, align 4
  %7 = alloca ptr, align 8
  %8 = alloca i32, align 4
  %9 = alloca i32, align 4
  store ptr %0, ptr %5, align 8, !tbaa !3
  store i32 %1, ptr %6, align 4, !tbaa !10
  store ptr %2, ptr %7, align 8, !tbaa !26
  call void @llvm.lifetime.start.p0(i64 4, ptr %8) #8
  %10 = load ptr, ptr %5, align 8, !tbaa !3
  %11 = icmp eq ptr %10, null
  br i1 %11, label %20, label %12

12:                                               ; preds = %3
  %13 = load ptr, ptr %5, align 8, !tbaa !3
  %14 = getelementptr inbounds nuw %struct.UNewTrie, ptr %13, i32 0, i32 9
  %15 = load i8, ptr %14, align 1, !tbaa !25
  %16 = icmp ne i8 %15, 0
  br i1 %16, label %20, label %17

17:                                               ; preds = %12
  %18 = load i32, ptr %6, align 4, !tbaa !10
  %19 = icmp ugt i32 %18, 1114111
  br i1 %19, label %20, label %26

20:                                               ; preds = %17, %12, %3
  %21 = load ptr, ptr %7, align 8, !tbaa !26
  %22 = icmp ne ptr %21, null
  br i1 %22, label %23, label %25

23:                                               ; preds = %20
  %24 = load ptr, ptr %7, align 8, !tbaa !26
  store i8 1, ptr %24, align 1, !tbaa !12
  br label %25

25:                                               ; preds = %23, %20
  store i32 0, ptr %4, align 4
  store i32 1, ptr %9, align 4
  br label %60

26:                                               ; preds = %17
  %27 = load ptr, ptr %5, align 8, !tbaa !3
  %28 = getelementptr inbounds nuw %struct.UNewTrie, ptr %27, i32 0, i32 0
  %29 = load i32, ptr %6, align 4, !tbaa !10
  %30 = ashr i32 %29, 5
  %31 = sext i32 %30 to i64
  %32 = getelementptr inbounds [34848 x i32], ptr %28, i64 0, i64 %31
  %33 = load i32, ptr %32, align 4, !tbaa !10
  store i32 %33, ptr %8, align 4, !tbaa !10
  %34 = load ptr, ptr %7, align 8, !tbaa !26
  %35 = icmp ne ptr %34, null
  br i1 %35, label %36, label %41

36:                                               ; preds = %26
  %37 = load i32, ptr %8, align 4, !tbaa !10
  %38 = icmp eq i32 %37, 0
  %39 = zext i1 %38 to i8
  %40 = load ptr, ptr %7, align 8, !tbaa !26
  store i8 %39, ptr %40, align 1, !tbaa !12
  br label %41

41:                                               ; preds = %36, %26
  %42 = load ptr, ptr %5, align 8, !tbaa !3
  %43 = getelementptr inbounds nuw %struct.UNewTrie, ptr %42, i32 0, i32 1
  %44 = load ptr, ptr %43, align 8, !tbaa !15
  %45 = load i32, ptr %8, align 4, !tbaa !10
  %46 = icmp sge i32 %45, 0
  br i1 %46, label %47, label %49

47:                                               ; preds = %41
  %48 = load i32, ptr %8, align 4, !tbaa !10
  br label %52

49:                                               ; preds = %41
  %50 = load i32, ptr %8, align 4, !tbaa !10
  %51 = sub nsw i32 0, %50
  br label %52

52:                                               ; preds = %49, %47
  %53 = phi i32 [ %48, %47 ], [ %51, %49 ]
  %54 = load i32, ptr %6, align 4, !tbaa !10
  %55 = and i32 %54, 31
  %56 = add nsw i32 %53, %55
  %57 = sext i32 %56 to i64
  %58 = getelementptr inbounds i32, ptr %44, i64 %57
  %59 = load i32, ptr %58, align 4, !tbaa !10
  store i32 %59, ptr %4, align 4
  store i32 1, ptr %9, align 4
  br label %60

60:                                               ; preds = %52, %25
  call void @llvm.lifetime.end.p0(i64 4, ptr %8) #8
  %61 = load i32, ptr %4, align 4
  ret i32 %61
}

; Function Attrs: mustprogress nounwind uwtable
define internal noundef i32 @_ZL21defaultGetFoldedValueP8UNewTrieii(ptr noundef %0, i32 noundef %1, i32 noundef %2) #6 {
  %4 = alloca i32, align 4
  %5 = alloca ptr, align 8
  %6 = alloca i32, align 4
  %7 = alloca i32, align 4
  %8 = alloca i32, align 4
  %9 = alloca i32, align 4
  %10 = alloca i32, align 4
  %11 = alloca i8, align 1
  %12 = alloca i32, align 4
  store ptr %0, ptr %5, align 8, !tbaa !3
  store i32 %1, ptr %6, align 4, !tbaa !10
  store i32 %2, ptr %7, align 4, !tbaa !10
  call void @llvm.lifetime.start.p0(i64 4, ptr %8) #8
  call void @llvm.lifetime.start.p0(i64 4, ptr %9) #8
  call void @llvm.lifetime.start.p0(i64 4, ptr %10) #8
  call void @llvm.lifetime.start.p0(i64 1, ptr %11) #8
  %13 = load ptr, ptr %5, align 8, !tbaa !3
  %14 = getelementptr inbounds nuw %struct.UNewTrie, ptr %13, i32 0, i32 1
  %15 = load ptr, ptr %14, align 8, !tbaa !15
  %16 = getelementptr inbounds i32, ptr %15, i64 0
  %17 = load i32, ptr %16, align 4, !tbaa !10
  store i32 %17, ptr %9, align 4, !tbaa !10
  %18 = load i32, ptr %6, align 4, !tbaa !10
  %19 = add nsw i32 %18, 1024
  store i32 %19, ptr %10, align 4, !tbaa !10
  br label %20

20:                                               ; preds = %43, %3
  %21 = load i32, ptr %6, align 4, !tbaa !10
  %22 = load i32, ptr %10, align 4, !tbaa !10
  %23 = icmp slt i32 %21, %22
  br i1 %23, label %24, label %44

24:                                               ; preds = %20
  %25 = load ptr, ptr %5, align 8, !tbaa !3
  %26 = load i32, ptr %6, align 4, !tbaa !10
  %27 = call i32 @utrie_get32_77(ptr noundef %25, i32 noundef %26, ptr noundef %11)
  store i32 %27, ptr %8, align 4, !tbaa !10
  %28 = load i8, ptr %11, align 1, !tbaa !12
  %29 = icmp ne i8 %28, 0
  br i1 %29, label %30, label %33

30:                                               ; preds = %24
  %31 = load i32, ptr %6, align 4, !tbaa !10
  %32 = add nsw i32 %31, 32
  store i32 %32, ptr %6, align 4, !tbaa !10
  br label %43

33:                                               ; preds = %24
  %34 = load i32, ptr %8, align 4, !tbaa !10
  %35 = load i32, ptr %9, align 4, !tbaa !10
  %36 = icmp ne i32 %34, %35
  br i1 %36, label %37, label %39

37:                                               ; preds = %33
  %38 = load i32, ptr %7, align 4, !tbaa !10
  store i32 %38, ptr %4, align 4
  store i32 1, ptr %12, align 4
  br label %45

39:                                               ; preds = %33
  %40 = load i32, ptr %6, align 4, !tbaa !10
  %41 = add nsw i32 %40, 1
  store i32 %41, ptr %6, align 4, !tbaa !10
  br label %42

42:                                               ; preds = %39
  br label %43

43:                                               ; preds = %42, %30
  br label %20, !llvm.loop !48

44:                                               ; preds = %20
  store i32 0, ptr %4, align 4
  store i32 1, ptr %12, align 4
  br label %45

45:                                               ; preds = %44, %37
  call void @llvm.lifetime.end.p0(i64 1, ptr %11) #8
  call void @llvm.lifetime.end.p0(i64 4, ptr %10) #8
  call void @llvm.lifetime.end.p0(i64 4, ptr %9) #8
  call void @llvm.lifetime.end.p0(i64 4, ptr %8) #8
  %46 = load i32, ptr %4, align 4
  ret i32 %46
}