; Function Attrs: mustprogress nofree norecurse nosync nounwind willreturn memory(read, inaccessiblemem: none) uwtable
define internal noundef i32 @_ZL21defaultGetFoldedValueP8UNewTrieii(ptr noundef readonly captures(none) %0, i32 noundef %1, i32 noundef %2) unnamed_addr #10 {
.split:
  %3 = getelementptr inbounds nuw i8, ptr %0, i64 139392
  %4 = load ptr, ptr %3, align 8, !tbaa !10
  %5 = load i32, ptr %4, align 4, !tbaa !12
  %6 = add nsw i32 %1, 1024
  %7 = getelementptr inbounds nuw i8, ptr %0, i64 139419
  %8 = load i8, ptr %7, align 1, !tbaa !21
  %.fr25 = freeze i8 %8
  %.not26 = icmp eq i8 %.fr25, 0
  br i1 %.not26, label %.split.split, label %.split19.us

.split.split:                                     ; preds = %.split, %utrie_get32_77.exit.thread
  %.01117 = phi i32 [ %21, %utrie_get32_77.exit.thread ], [ %1, %.split ]
  %9 = icmp ugt i32 %.01117, 1114111
  br i1 %9, label %utrie_get32_77.exit.thread, label %utrie_get32_77.exit

utrie_get32_77.exit:                              ; preds = %.split.split
  %10 = lshr i32 %.01117, 5
  %11 = zext nneg i32 %10 to i64
  %12 = getelementptr inbounds nuw [34848 x i32], ptr %0, i64 0, i64 %11
  %13 = load i32, ptr %12, align 4, !tbaa !12
  %.not = icmp eq i32 %13, 0
  br i1 %.not, label %utrie_get32_77.exit.thread, label %14

14:                                               ; preds = %utrie_get32_77.exit
  %15 = tail call i32 @llvm.abs.i32(i32 %13, i1 true)
  %16 = and i32 %.01117, 31
  %17 = add nuw nsw i32 %15, %16
  %18 = zext nneg i32 %17 to i64
  %19 = getelementptr inbounds nuw i32, ptr %4, i64 %18
  %20 = load i32, ptr %19, align 4, !tbaa !12
  %.not12 = icmp eq i32 %20, %5
  br i1 %.not12, label %utrie_get32_77.exit.thread, label %.split19.us

utrie_get32_77.exit.thread:                       ; preds = %14, %utrie_get32_77.exit, %.split.split
  %.sink = phi i32 [ 32, %.split.split ], [ 32, %utrie_get32_77.exit ], [ 1, %14 ]
  %21 = add nsw i32 %.01117, %.sink
  %22 = icmp slt i32 %21, %6
  br i1 %22, label %.split.split, label %.split19.us, !llvm.loop !42

.split19.us:                                      ; preds = %utrie_get32_77.exit.thread, %14, %.split
  %.us-phi = phi i32 [ 0, %.split ], [ %2, %14 ], [ 0, %utrie_get32_77.exit.thread ]
  ret i32 %.us-phi
}